target datalayout = "e-m:e-p270:32:32-p271:32:32-p272:64:64-i64:64-i128:128-f80:128-n8:16:32:64-S128"
target triple = "x86_64-pc-linux-gnu"

%struct.lxb_html_tree = type { ptr, ptr, ptr, ptr, ptr, ptr, ptr, %struct.lxb_html_tree_pending_table_t, ptr, i8, i8, i8, i8, i8, i8, ptr, ptr, ptr, i32, i64 }
%struct.lxb_html_tree_pending_table_t = type { ptr, i8 }
%struct.lexbor_array_t = type { ptr, i64, i64 }

; Function Attrs: nounwind uwtable
define hidden void @lxb_html_tree_open_elements_pop_until_node(ptr noundef %0, ptr noundef %1, i1 noundef zeroext %2) #0 {
  %4 = alloca ptr, align 8
  %5 = alloca ptr, align 8
  %6 = alloca i8, align 1
  %7 = alloca ptr, align 8
  store ptr %0, ptr %4, align 8
  store ptr %1, ptr %5, align 8
  %8 = zext i1 %2 to i8
  store i8 %8, ptr %6, align 1
  %9 = load ptr, ptr %4, align 8
  %10 = getelementptr inbounds %struct.lxb_html_tree, ptr %9, i32 0, i32 4
  %11 = load ptr, ptr %10, align 8
  %12 = getelementptr inbounds %struct.lexbor_array_t, ptr %11, i32 0, i32 0
  %13 = load ptr, ptr %12, align 8
  store ptr %13, ptr %7, align 8
  br label %14

14:                                               ; preds = %51, %3
  %15 = load ptr, ptr %4, align 8
  %16 = getelementptr inbounds %struct.lxb_html_tree, ptr %15, i32 0, i32 4
  %17 = load ptr, ptr %16, align 8
  %18 = getelementptr inbounds %struct.lexbor_array_t, ptr %17, i32 0, i32 2
  %19 = load i64, ptr %18, align 8
  %20 = icmp ne i64 %19, 0
  br i1 %20, label %21, label %52

21:                                               ; preds = %14
  %22 = load ptr, ptr %4, align 8
  %23 = getelementptr inbounds %struct.lxb_html_tree, ptr %22, i32 0, i32 4
  %24 = load ptr, ptr %23, align 8
  %25 = getelementptr inbounds %struct.lexbor_array_t, ptr %24, i32 0, i32 2
  %26 = load i64, ptr %25, align 8
  %27 = add i64 %26, -1
  store i64 %27, ptr %25, align 8
  %28 = load ptr, ptr %7, align 8
  %29 = load ptr, ptr %4, align 8
  %30 = getelementptr inbounds %struct.lxb_html_tree, ptr %29, i32 0, i32 4
  %31 = load ptr, ptr %30, align 8
  %32 = getelementptr inbounds %struct.lexbor_array_t, ptr %31, i32 0, i32 2
  %33 = load i64, ptr %32, align 8
  %34 = getelementptr inbounds ptr, ptr %28, i64 %33
  %35 = load ptr, ptr %34, align 8
  %36 = load ptr, ptr %5, align 8
  %37 = icmp eq ptr %35, %36
  br i1 %37, label %38, label %51

38:                                               ; preds = %21
  %39 = load i8, ptr %6, align 1
  %40 = trunc i8 %39 to i1
  %41 = zext i1 %40 to i32
  %42 = icmp eq i32 %41, 0
  br i1 %42, label %43, label %50

43:                                               ; preds = %38
  %44 = load ptr, ptr %4, align 8
  %45 = getelementptr inbounds %struct.lxb_html_tree, ptr %44, i32 0, i32 4
  %46 = load ptr, ptr %45, align 8
  %47 = getelementptr inbounds %struct.lexbor_array_t, ptr %46, i32 0, i32 2
  %48 = load i64, ptr %47, align 8
  %49 = add i64 %48, 1
  store i64 %49, ptr %47, align 8
  br label %50

50:                                               ; preds = %43, %38
  br label %52

51:                                               ; preds = %21
  br label %14

52:                                               ; preds = %50, %14
  ret void
}