; Function Attrs: nofree norecurse nosync nounwind memory(readwrite, inaccessiblemem: none) uwtable
define hidden void @lxb_html_tree_open_elements_pop_until_node(ptr nocapture noundef readonly %0, ptr noundef readnone %1, i1 noundef zeroext %2) local_unnamed_addr #0 {
  %4 = getelementptr inbounds i8, ptr %0, i64 32
  %5 = load ptr, ptr %4, align 8
  %6 = load ptr, ptr %5, align 8
  %.phi.trans.insert = getelementptr inbounds i8, ptr %5, i64 16
  %.pre = load i64, ptr %.phi.trans.insert, align 8
  br label %7

7:                                                ; preds = %10, %3
  %8 = phi i64 [ %15, %10 ], [ %.pre, %3 ]
  %9 = phi ptr [ %13, %10 ], [ %5, %3 ]
  %.not = icmp eq i64 %8, 0
  br i1 %.not, label %.loopexit, label %10

10:                                               ; preds = %7
  %11 = getelementptr inbounds i8, ptr %9, i64 16
  %12 = add i64 %8, -1
  store i64 %12, ptr %11, align 8
  %13 = load ptr, ptr %4, align 8
  %14 = getelementptr inbounds i8, ptr %13, i64 16
  %15 = load i64, ptr %14, align 8
  %16 = getelementptr inbounds ptr, ptr %6, i64 %15
  %17 = load ptr, ptr %16, align 8
  %18 = icmp eq ptr %17, %1
  br i1 %18, label %19, label %7

19:                                               ; preds = %10
  br i1 %2, label %.loopexit, label %20

20:                                               ; preds = %19
  %21 = getelementptr inbounds i8, ptr %13, i64 16
  %22 = add i64 %15, 1
  store i64 %22, ptr %21, align 8
  br label %.loopexit

.loopexit:                                        ; preds = %7, %19, %20
  ret void
}